; ModuleID = 'source-C-CXX/5/508.cpp'
source_filename = "source-C-CXX/5/508.cpp"
target datalayout = "e-m:e-p270:32:32-p271:32:32-p272:64:64-i64:64-f80:128-n8:16:32:64-S128"
target triple = "x86_64-pc-linux-gnu"

%"class.std::ios_base::Init" = type { i8 }
%"class.std::basic_istream" = type { i32 (...)**, i64, %"class.std::basic_ios" }
%"class.std::basic_ios" = type { %"class.std::ios_base", %"class.std::basic_ostream"*, i8, i8, %"class.std::basic_streambuf"*, %"class.std::ctype"*, %"class.std::num_put"*, %"class.std::num_get"* }
%"class.std::ios_base" = type { i32 (...)**, i64, i64, i32, i32, i32, %"struct.std::ios_base::_Callback_list"*, %"struct.std::ios_base::_Words", [8 x %"struct.std::ios_base::_Words"], i32, %"struct.std::ios_base::_Words"*, %"class.std::locale" }
%"struct.std::ios_base::_Callback_list" = type { %"struct.std::ios_base::_Callback_list"*, void (i32, %"class.std::ios_base"*, i32)*, i32, i32 }
%"struct.std::ios_base::_Words" = type { i8*, i64 }
%"class.std::locale" = type { %"class.std::locale::_Impl"* }
%"class.std::locale::_Impl" = type { i32, %"class.std::locale::facet"**, i64, %"class.std::locale::facet"**, i8** }
%"class.std::locale::facet" = type <{ i32 (...)**, i32, [4 x i8] }>
%"class.std::basic_ostream" = type { i32 (...)**, %"class.std::basic_ios" }
%"class.std::basic_streambuf" = type { i32 (...)**, i8*, i8*, i8*, i8*, i8*, i8*, %"class.std::locale" }
%"class.std::ctype" = type <{ %"class.std::locale::facet.base", [4 x i8], %struct.__locale_struct*, i8, [7 x i8], i32*, i32*, i16*, i8, [256 x i8], [256 x i8], i8, [6 x i8] }>
%"class.std::locale::facet.base" = type <{ i32 (...)**, i32 }>
%struct.__locale_struct = type { [13 x %struct.__locale_data*], i16*, i32*, i32*, [13 x i8*] }
%struct.__locale_data = type opaque
%"class.std::num_put" = type { %"class.std::locale::facet.base", [4 x i8] }
%"class.std::num_get" = type { %"class.std::locale::facet.base", [4 x i8] }

@_ZStL8__ioinit = internal global %"class.std::ios_base::Init" zeroinitializer, align 1
@__dso_handle = external hidden global i8
@_ZSt3cin = external global %"class.std::basic_istream", align 8
@_ZSt4cout = external global %"class.std::basic_ostream", align 8
@llvm.global_ctors = appending global [1 x { i32, void ()*, i8* }] [{ i32, void ()*, i8* } { i32 65535, void ()* @_GLOBAL__sub_I_508.cpp, i8* null }]

declare void @_ZNSt8ios_base4InitC1Ev(%"class.std::ios_base::Init"* nonnull align 1 dereferenceable(1)) unnamed_addr #0

; Function Attrs: nounwind
declare void @_ZNSt8ios_base4InitD1Ev(%"class.std::ios_base::Init"* nonnull align 1 dereferenceable(1)) unnamed_addr #1

; Function Attrs: nofree nounwind
declare i32 @__cxa_atexit(void (i8*)*, i8*, i8*) local_unnamed_addr #2

; Function Attrs: mustprogress norecurse sspstrong uwtable
define dso_local i32 @main() local_unnamed_addr #3 {
  %1 = alloca [101 x [101 x i32]], align 16
  %2 = alloca i32, align 4
  %3 = alloca i32, align 4
  %4 = alloca i32, align 4
  %5 = bitcast [101 x [101 x i32]]* %1 to i8*
  call void @llvm.lifetime.start.p0i8(i64 40804, i8* nonnull %5) #7
  %6 = bitcast i32* %2 to i8*
  call void @llvm.lifetime.start.p0i8(i64 4, i8* nonnull %6) #7
  %7 = bitcast i32* %3 to i8*
  call void @llvm.lifetime.start.p0i8(i64 4, i8* nonnull %7) #7
  %8 = bitcast i32* %4 to i8*
  call void @llvm.lifetime.start.p0i8(i64 4, i8* nonnull %8) #7
  %9 = call nonnull align 8 dereferenceable(16) %"class.std::basic_istream"* @_ZNSirsERi(%"class.std::basic_istream"* nonnull align 8 dereferenceable(16) @_ZSt3cin, i32* nonnull align 4 dereferenceable(4) %4)
  %10 = load i32, i32* %4, align 4, !tbaa !5
  %11 = icmp sgt i32 %10, 0
  br i1 %11, label %12, label %137

12:                                               ; preds = %0, %130
  %13 = call nonnull align 8 dereferenceable(16) %"class.std::basic_istream"* @_ZNSirsERi(%"class.std::basic_istream"* nonnull align 8 dereferenceable(16) @_ZSt3cin, i32* nonnull align 4 dereferenceable(4) %2)
  %14 = call nonnull align 8 dereferenceable(16) %"class.std::basic_istream"* @_ZNSirsERi(%"class.std::basic_istream"* nonnull align 8 dereferenceable(16) %13, i32* nonnull align 4 dereferenceable(4) %3)
  %15 = load i32, i32* %2, align 4, !tbaa !5
  %16 = icmp sgt i32 %15, 0
  %17 = load i32, i32* %3, align 4
  %18 = icmp sgt i32 %17, 0
  %19 = select i1 %16, i1 %18, i1 false
  br i1 %19, label %20, label %102

20:                                               ; preds = %12, %95
  %21 = phi i32 [ %96, %95 ], [ %15, %12 ]
  %22 = phi i32 [ %97, %95 ], [ %17, %12 ]
  %23 = phi i64 [ %99, %95 ], [ 0, %12 ]
  %24 = phi i32 [ %98, %95 ], [ 0, %12 ]
  %25 = icmp sgt i32 %22, 0
  br i1 %25, label %26, label %95

26:                                               ; preds = %20
  %27 = icmp eq i64 %23, 0
  br i1 %27, label %52, label %28

28:                                               ; preds = %26
  %29 = getelementptr inbounds [101 x [101 x i32]], [101 x [101 x i32]]* %1, i64 0, i64 %23, i64 0
  %30 = call nonnull align 8 dereferenceable(16) %"class.std::basic_istream"* @_ZNSirsERi(%"class.std::basic_istream"* nonnull align 8 dereferenceable(16) @_ZSt3cin, i32* nonnull align 4 dereferenceable(4) %29)
  %31 = load i32, i32* %2, align 4, !tbaa !5
  %32 = add nsw i32 %31, -1
  %33 = zext i32 %32 to i64
  %34 = icmp eq i64 %23, %33
  br i1 %34, label %44, label %35

35:                                               ; preds = %28
  %36 = load i32, i32* %29, align 4, !tbaa !5
  %37 = add nsw i32 %36, %24
  %38 = load i32, i32* %3, align 4, !tbaa !5
  %39 = icmp ne i32 %38, 1
  %40 = select i1 %39, i1 true, i1 %34
  br i1 %40, label %48, label %41

41:                                               ; preds = %35
  %42 = load i32, i32* %29, align 4, !tbaa !5
  %43 = add nsw i32 %42, %37
  br label %48

44:                                               ; preds = %28
  %45 = load i32, i32* %29, align 4, !tbaa !5
  %46 = add nsw i32 %45, %24
  %47 = load i32, i32* %3, align 4, !tbaa !5
  br label %48

48:                                               ; preds = %44, %41, %35
  %49 = phi i32 [ %38, %41 ], [ %38, %35 ], [ %47, %44 ]
  %50 = phi i32 [ %43, %41 ], [ %37, %35 ], [ %46, %44 ]
  %51 = icmp sgt i32 %49, 1
  br i1 %51, label %67, label %95

52:                                               ; preds = %26, %52
  %53 = phi i64 [ %64, %52 ], [ 0, %26 ]
  %54 = phi i32 [ %62, %52 ], [ %24, %26 ]
  %55 = getelementptr inbounds [101 x [101 x i32]], [101 x [101 x i32]]* %1, i64 0, i64 0, i64 %53
  %56 = call nonnull align 8 dereferenceable(16) %"class.std::basic_istream"* @_ZNSirsERi(%"class.std::basic_istream"* nonnull align 8 dereferenceable(16) @_ZSt3cin, i32* nonnull align 4 dereferenceable(4) %55)
  %57 = load i32, i32* %55, align 4, !tbaa !5
  %58 = add nsw i32 %57, %54
  %59 = load i32, i32* %2, align 4, !tbaa !5
  %60 = icmp eq i32 %59, 1
  %61 = select i1 %60, i32 %57, i32 0
  %62 = add nsw i32 %58, %61
  %63 = load i32, i32* %3, align 4, !tbaa !5
  %64 = add nuw nsw i64 %53, 1
  %65 = sext i32 %63 to i64
  %66 = icmp slt i64 %64, %65
  br i1 %66, label %52, label %95, !llvm.loop !9

67:                                               ; preds = %48, %89
  %68 = phi i64 [ %92, %89 ], [ 1, %48 ]
  %69 = phi i32 [ %91, %89 ], [ %50, %48 ]
  %70 = getelementptr inbounds [101 x [101 x i32]], [101 x [101 x i32]]* %1, i64 0, i64 %23, i64 %68
  %71 = call nonnull align 8 dereferenceable(16) %"class.std::basic_istream"* @_ZNSirsERi(%"class.std::basic_istream"* nonnull align 8 dereferenceable(16) @_ZSt3cin, i32* nonnull align 4 dereferenceable(4) %70)
  %72 = load i32, i32* %2, align 4, !tbaa !5
  %73 = add nsw i32 %72, -1
  %74 = zext i32 %73 to i64
  %75 = icmp eq i64 %23, %74
  br i1 %75, label %76, label %80

76:                                               ; preds = %67
  %77 = load i32, i32* %70, align 4, !tbaa !5
  %78 = add nsw i32 %77, %69
  %79 = load i32, i32* %3, align 4, !tbaa !5
  br label %89

80:                                               ; preds = %67
  %81 = load i32, i32* %3, align 4, !tbaa !5
  %82 = add nsw i32 %81, -1
  %83 = zext i32 %82 to i64
  %84 = icmp ne i64 %68, %83
  %85 = select i1 %84, i1 true, i1 %75
  br i1 %85, label %89, label %86

86:                                               ; preds = %80
  %87 = load i32, i32* %70, align 4, !tbaa !5
  %88 = add nsw i32 %87, %69
  br label %89

89:                                               ; preds = %76, %80, %86
  %90 = phi i32 [ %81, %86 ], [ %81, %80 ], [ %79, %76 ]
  %91 = phi i32 [ %88, %86 ], [ %69, %80 ], [ %78, %76 ]
  %92 = add nuw nsw i64 %68, 1
  %93 = sext i32 %90 to i64
  %94 = icmp slt i64 %92, %93
  br i1 %94, label %67, label %95, !llvm.loop !11

95:                                               ; preds = %48, %89, %52, %20
  %96 = phi i32 [ %21, %20 ], [ %59, %52 ], [ %31, %48 ], [ %72, %89 ]
  %97 = phi i32 [ %22, %20 ], [ %63, %52 ], [ %49, %48 ], [ %90, %89 ]
  %98 = phi i32 [ %24, %20 ], [ %62, %52 ], [ %50, %48 ], [ %91, %89 ]
  %99 = add nuw nsw i64 %23, 1
  %100 = sext i32 %96 to i64
  %101 = icmp slt i64 %99, %100
  br i1 %101, label %20, label %102, !llvm.loop !13

102:                                              ; preds = %95, %12
  %103 = phi i32 [ 0, %12 ], [ %98, %95 ]
  %104 = call nonnull align 8 dereferenceable(8) %"class.std::basic_ostream"* @_ZNSolsEi(%"class.std::basic_ostream"* nonnull align 8 dereferenceable(8) @_ZSt4cout, i32 %103)
  %105 = bitcast %"class.std::basic_ostream"* %104 to i8**
  %106 = load i8*, i8** %105, align 8, !tbaa !15
  %107 = getelementptr i8, i8* %106, i64 -24
  %108 = bitcast i8* %107 to i64*
  %109 = load i64, i64* %108, align 8
  %110 = bitcast %"class.std::basic_ostream"* %104 to i8*
  %111 = add nsw i64 %109, 240
  %112 = getelementptr inbounds i8, i8* %110, i64 %111
  %113 = bitcast i8* %112 to %"class.std::ctype"**
  %114 = load %"class.std::ctype"*, %"class.std::ctype"** %113, align 8, !tbaa !17
  %115 = icmp eq %"class.std::ctype"* %114, null
  br i1 %115, label %116, label %117

116:                                              ; preds = %102
  call void @_ZSt16__throw_bad_castv() #8
  unreachable

117:                                              ; preds = %102
  %118 = getelementptr inbounds %"class.std::ctype", %"class.std::ctype"* %114, i64 0, i32 8
  %119 = load i8, i8* %118, align 8, !tbaa !21
  %120 = icmp eq i8 %119, 0
  br i1 %120, label %124, label %121

121:                                              ; preds = %117
  %122 = getelementptr inbounds %"class.std::ctype", %"class.std::ctype"* %114, i64 0, i32 9, i64 10
  %123 = load i8, i8* %122, align 1, !tbaa !23
  br label %130

124:                                              ; preds = %117
  call void @_ZNKSt5ctypeIcE13_M_widen_initEv(%"class.std::ctype"* nonnull align 8 dereferenceable(570) %114)
  %125 = bitcast %"class.std::ctype"* %114 to i8 (%"class.std::ctype"*, i8)***
  %126 = load i8 (%"class.std::ctype"*, i8)**, i8 (%"class.std::ctype"*, i8)*** %125, align 8, !tbaa !15
  %127 = getelementptr inbounds i8 (%"class.std::ctype"*, i8)*, i8 (%"class.std::ctype"*, i8)** %126, i64 6
  %128 = load i8 (%"class.std::ctype"*, i8)*, i8 (%"class.std::ctype"*, i8)** %127, align 8
  %129 = call signext i8 %128(%"class.std::ctype"* nonnull align 8 dereferenceable(570) %114, i8 signext 10)
  br label %130

130:                                              ; preds = %121, %124
  %131 = phi i8 [ %123, %121 ], [ %129, %124 ]
  %132 = call nonnull align 8 dereferenceable(8) %"class.std::basic_ostream"* @_ZNSo3putEc(%"class.std::basic_ostream"* nonnull align 8 dereferenceable(8) %104, i8 signext %131)
  %133 = call nonnull align 8 dereferenceable(8) %"class.std::basic_ostream"* @_ZNSo5flushEv(%"class.std::basic_ostream"* nonnull align 8 dereferenceable(8) %132)
  %134 = load i32, i32* %4, align 4, !tbaa !5
  %135 = add nsw i32 %134, -1
  store i32 %135, i32* %4, align 4, !tbaa !5
  %136 = icmp sgt i32 %134, 1
  br i1 %136, label %12, label %137, !llvm.loop !24

137:                                              ; preds = %130, %0
  call void @llvm.lifetime.end.p0i8(i64 4, i8* nonnull %8) #7
  call void @llvm.lifetime.end.p0i8(i64 4, i8* nonnull %7) #7
  call void @llvm.lifetime.end.p0i8(i64 4, i8* nonnull %6) #7
  call void @llvm.lifetime.end.p0i8(i64 40804, i8* nonnull %5) #7
  ret i32 0
}

; Function Attrs: argmemonly mustprogress nofree nosync nounwind willreturn
declare void @llvm.lifetime.start.p0i8(i64 immarg, i8* nocapture) #4

declare nonnull align 8 dereferenceable(16) %"class.std::basic_istream"* @_ZNSirsERi(%"class.std::basic_istream"* nonnull align 8 dereferenceable(16), i32* nonnull align 4 dereferenceable(4)) local_unnamed_addr #0

declare nonnull align 8 dereferenceable(8) %"class.std::basic_ostream"* @_ZNSolsEi(%"class.std::basic_ostream"* nonnull align 8 dereferenceable(8), i32) local_unnamed_addr #0

; Function Attrs: argmemonly mustprogress nofree nosync nounwind willreturn
declare void @llvm.lifetime.end.p0i8(i64 immarg, i8* nocapture) #4

declare nonnull align 8 dereferenceable(8) %"class.std::basic_ostream"* @_ZNSo3putEc(%"class.std::basic_ostream"* nonnull align 8 dereferenceable(8), i8 signext) local_unnamed_addr #0

declare nonnull align 8 dereferenceable(8) %"class.std::basic_ostream"* @_ZNSo5flushEv(%"class.std::basic_ostream"* nonnull align 8 dereferenceable(8)) local_unnamed_addr #0

; Function Attrs: noreturn
declare void @_ZSt16__throw_bad_castv() local_unnamed_addr #5

declare void @_ZNKSt5ctypeIcE13_M_widen_initEv(%"class.std::ctype"* nonnull align 8 dereferenceable(570)) local_unnamed_addr #0

; Function Attrs: sspstrong uwtable
define internal void @_GLOBAL__sub_I_508.cpp() #6 section ".text.startup" {
  tail call void @_ZNSt8ios_base4InitC1Ev(%"class.std::ios_base::Init"* nonnull align 1 dereferenceable(1) @_ZStL8__ioinit)
  %1 = tail call i32 @__cxa_atexit(void (i8*)* bitcast (void (%"class.std::ios_base::Init"*)* @_ZNSt8ios_base4InitD1Ev to void (i8*)*), i8* getelementptr inbounds (%"class.std::ios_base::Init", %"class.std::ios_base::Init"* @_ZStL8__ioinit, i64 0, i32 0), i8* nonnull @__dso_handle) #7
  ret void
}


!llvm.module.flags = !{!0, !1, !2, !3}
!llvm.ident = !{!4}

!0 = !{i32 1, !"wchar_size", i32 4}
!1 = !{i32 7, !"PIC Level", i32 2}
!2 = !{i32 7, !"PIE Level", i32 2}
!3 = !{i32 7, !"uwtable", i32 1}
!4 = !{!"clang version 13.0.0"}
!5 = !{!6, !6, i64 0}
!6 = !{!"int", !7, i64 0}
!7 = !{!"omnipotent char", !8, i64 0}
!8 = !{!"Simple C++ TBAA"}
!9 = distinct !{!9, !10}
!10 = !{!"llvm.loop.mustprogress"}
!11 = distinct !{!11, !10, !12}
!12 = !{!"llvm.loop.peeled.count", i32 1}
!13 = distinct !{!13, !10, !14}
!14 = !{!"llvm.loop.unswitch.partial.disable"}
!15 = !{!16, !16, i64 0}
!16 = !{!"vtable pointer", !8, i64 0}
!17 = !{!18, !19, i64 240}
!18 = !{!"_ZTSSt9basic_iosIcSt11char_traitsIcEE", !19, i64 216, !7, i64 224, !20, i64 225, !19, i64 232, !19, i64 240, !19, i64 248, !19, i64 256}
!19 = !{!"any pointer", !7, i64 0}
!20 = !{!"bool", !7, i64 0}
!21 = !{!22, !7, i64 56}
!22 = !{!"_ZTSSt5ctypeIcE", !19, i64 16, !20, i64 24, !19, i64 32, !19, i64 40, !19, i64 48, !7, i64 56, !7, i64 57, !7, i64 313, !7, i64 569}
!23 = !{!7, !7, i64 0}
!24 = distinct !{!24, !10}
